target datalayout = "e-m:e-p270:32:32-p271:32:32-p272:64:64-i64:64-i128:128-f80:128-n8:16:32:64-S128"
target triple = "x86_64-pc-linux-gnu"

%struct.H5HF_free_section_t = type { %struct.H5FS_section_info_t, %union.anon }
%struct.H5FS_section_info_t = type { i64, i64, i32, i32 }
%union.anon = type { %struct.anon.1 }
%struct.anon.1 = type { %union.anon.2, i32, i32, i32, ptr, i32, i64, i32, i32, i32, ptr, i32, ptr }
%union.anon.2 = type { ptr }
%struct.H5HF_hdr_t = type { %struct.H5C_cache_entry_t, i32, i32, i8, i8, i8, i8, %struct.H5HF_dtable_t, i64, i64, i32, i64, i64, %struct.H5O_pline_t, i64, i32, i64, i64, i64, i64, i64, i64, i64, i64, i64, i64, i64, i32, ptr, i64, i8, i8, i8, ptr, i32, ptr, %struct.H5HF_block_iter_t, ptr, i64, i8, i8, i64, i8, i8, i8, i8 }
%struct.H5C_cache_entry_t = type { ptr, i64, i64, ptr, i8, ptr, i8, i8, i8, i8, i32, i8, i8, i8, i8, i8, i32, ptr, i32, i32, i32, i32, i32, i8, i8, ptr, ptr, ptr, ptr, ptr, ptr, i8, i32, i8, i64, ptr, i64, i64, i32, i8, i32, i32, i8, ptr, ptr, ptr }
%struct.H5HF_dtable_t = type { %struct.H5HF_dtable_cparam_t, i64, i32, i32, i32, i32, i32, i32, i32, i64, ptr, ptr, ptr, ptr }
%struct.H5HF_dtable_cparam_t = type { i32, i64, i64, i32, i32 }
%struct.H5O_pline_t = type { %struct.H5O_shared_t, i32, i64, i64, ptr }
%struct.H5O_shared_t = type { i32, ptr, i32, %union.anon.3 }
%union.anon.3 = type { %struct.H5O_mesg_loc_t }
%struct.H5O_mesg_loc_t = type { i32, i64 }
%struct.H5HF_block_iter_t = type { i8, ptr }
%struct.H5HF_indirect_t = type { %struct.H5C_cache_entry_t, i64, ptr, ptr, ptr, i32, i64, i64, i32, i32, i32, i32, ptr, i8, i64, ptr, ptr }

@H5HF_init_g = external global i8, align 1
@H5_libterm_g = external global i8, align 1
@.str = private unnamed_addr constant [105 x i8] c"generated/home/dtcxzyw/WorkSpace/Projects/compilers/llvm-opt-benchmark/bench/hdf5/hdf5/src/H5HFsection.c\00", align 1
@H5E_HEAP_g = external global i64, align 8
@H5E_CANTREVIVE_g = external global i64, align 8
@.str.8 = private unnamed_addr constant [30 x i8] c"can't revive indirect section\00", align 1
@H5E_CANTDEC_g = external global i64, align 8
@.str.30 = private unnamed_addr constant [57 x i8] c"can't decrement reference count on shared indirect block\00", align 1
@__func__.H5HF__sect_indirect_revive = private unnamed_addr constant [27 x i8] c"H5HF__sect_indirect_revive\00", align 1

; Function Attrs: nounwind uwtable
define internal i32 @H5HF__sect_indirect_revive(ptr noundef %0, ptr noundef %1, ptr noundef %2) #0 {
  %4 = alloca ptr, align 8
  %5 = alloca ptr, align 8
  %6 = alloca ptr, align 8
  %7 = alloca i32, align 4
  %8 = alloca i32, align 4
  %9 = alloca i8, align 1
  store ptr %0, ptr %4, align 8, !tbaa !22
  store ptr %1, ptr %5, align 8, !tbaa !23
  store ptr %2, ptr %6, align 8, !tbaa !66
  call void @llvm.lifetime.start.p0(i64 4, ptr %7) #7
  call void @llvm.lifetime.start.p0(i64 4, ptr %8) #7
  store i32 0, ptr %8, align 4, !tbaa !11
  call void @llvm.lifetime.start.p0(i64 1, ptr %9) #7
  store i8 0, ptr %9, align 1, !tbaa !13
  %10 = load i8, ptr @H5HF_init_g, align 1, !tbaa !13, !range !15, !noundef !16
  %11 = trunc i8 %10 to i1
  br i1 %11, label %16, label %12

12:                                               ; preds = %3
  %13 = load i8, ptr @H5_libterm_g, align 1, !tbaa !13, !range !15, !noundef !16
  %14 = trunc i8 %13 to i1
  %15 = xor i1 %14, true
  br label %16

16:                                               ; preds = %12, %3
  %17 = phi i1 [ true, %3 ], [ %15, %12 ]
  %18 = xor i1 %17, true
  %19 = xor i1 %18, true
  %20 = zext i1 %19 to i32
  %21 = sext i32 %20 to i64
  %22 = call i64 @llvm.expect.i64(i64 %21, i64 1)
  %23 = icmp ne i64 %22, 0
  br i1 %23, label %24, label %142

24:                                               ; preds = %16
  %25 = load ptr, ptr %6, align 8, !tbaa !66
  %26 = call i32 @H5HF__iblock_incr(ptr noundef %25)
  %27 = icmp slt i32 %26, 0
  br i1 %27, label %28, label %47

28:                                               ; preds = %24
  br label %29

29:                                               ; preds = %28
  br label %30

30:                                               ; preds = %29
  br label %31

31:                                               ; preds = %30
  %32 = load i64, ptr @H5E_HEAP_g, align 8, !tbaa !25
  %33 = load i64, ptr @H5E_CANTDEC_g, align 8, !tbaa !25
  %34 = call i32 (ptr, ptr, i32, i64, i64, ptr, ...) @H5E_printf_stack(ptr noundef @.str, ptr noundef @__func__.H5HF__sect_indirect_revive, i32 noundef 2633, i64 noundef %32, i64 noundef %33, ptr noundef @.str.30)
  br label %35

35:                                               ; preds = %31
  br label %36

36:                                               ; preds = %35
  store i8 1, ptr %9, align 1, !tbaa !13
  %37 = load i8, ptr %9, align 1, !tbaa !13, !range !15, !noundef !16
  %38 = trunc i8 %37 to i1
  %39 = zext i1 %38 to i8
  store i8 %39, ptr %9, align 1, !tbaa !13
  br label %40

40:                                               ; preds = %36
  br label %41

41:                                               ; preds = %40
  br label %42

42:                                               ; preds = %41
  store i32 -1, ptr %8, align 4, !tbaa !11
  br label %141

43:                                               ; No predecessors!
  br label %44

44:                                               ; preds = %43
  br label %45

45:                                               ; preds = %44
  br label %46

46:                                               ; preds = %45
  br label %47

47:                                               ; preds = %46, %24
  %48 = load ptr, ptr %6, align 8, !tbaa !66
  %49 = load ptr, ptr %5, align 8, !tbaa !23
  %50 = getelementptr inbounds nuw %struct.H5HF_free_section_t, ptr %49, i32 0, i32 1
  %51 = getelementptr inbounds nuw %struct.anon.1, ptr %50, i32 0, i32 0
  store ptr %48, ptr %51, align 8, !tbaa !63
  %52 = load ptr, ptr %4, align 8, !tbaa !22
  %53 = getelementptr inbounds nuw %struct.H5HF_hdr_t, ptr %52, i32 0, i32 7
  %54 = getelementptr inbounds nuw %struct.H5HF_dtable_t, ptr %53, i32 0, i32 0
  %55 = getelementptr inbounds nuw %struct.H5HF_dtable_cparam_t, ptr %54, i32 0, i32 0
  %56 = load i32, ptr %55, align 8, !tbaa !86
  %57 = load ptr, ptr %5, align 8, !tbaa !23
  %58 = getelementptr inbounds nuw %struct.H5HF_free_section_t, ptr %57, i32 0, i32 1
  %59 = getelementptr inbounds nuw %struct.anon.1, ptr %58, i32 0, i32 0
  %60 = load ptr, ptr %59, align 8, !tbaa !63
  %61 = getelementptr inbounds nuw %struct.H5HF_indirect_t, ptr %60, i32 0, i32 9
  %62 = load i32, ptr %61, align 4, !tbaa !95
  %63 = mul i32 %56, %62
  %64 = load ptr, ptr %5, align 8, !tbaa !23
  %65 = getelementptr inbounds nuw %struct.H5HF_free_section_t, ptr %64, i32 0, i32 1
  %66 = getelementptr inbounds nuw %struct.anon.1, ptr %65, i32 0, i32 7
  store i32 %63, ptr %66, align 8, !tbaa !63
  %67 = load ptr, ptr %5, align 8, !tbaa !23
  %68 = getelementptr inbounds nuw %struct.H5HF_free_section_t, ptr %67, i32 0, i32 0
  %69 = getelementptr inbounds nuw %struct.H5FS_section_info_t, ptr %68, i32 0, i32 3
  store i32 0, ptr %69, align 4, !tbaa !38
  store i32 0, ptr %7, align 4, !tbaa !11
  br label %70

70:                                               ; preds = %88, %47
  %71 = load i32, ptr %7, align 4, !tbaa !11
  %72 = load ptr, ptr %5, align 8, !tbaa !23
  %73 = getelementptr inbounds nuw %struct.H5HF_free_section_t, ptr %72, i32 0, i32 1
  %74 = getelementptr inbounds nuw %struct.anon.1, ptr %73, i32 0, i32 9
  %75 = load i32, ptr %74, align 8, !tbaa !63
  %76 = icmp ult i32 %71, %75
  br i1 %76, label %77, label %91

77:                                               ; preds = %70
  %78 = load ptr, ptr %5, align 8, !tbaa !23
  %79 = getelementptr inbounds nuw %struct.H5HF_free_section_t, ptr %78, i32 0, i32 1
  %80 = getelementptr inbounds nuw %struct.anon.1, ptr %79, i32 0, i32 10
  %81 = load ptr, ptr %80, align 8, !tbaa !63
  %82 = load i32, ptr %7, align 4, !tbaa !11
  %83 = zext i32 %82 to i64
  %84 = getelementptr inbounds nuw ptr, ptr %81, i64 %83
  %85 = load ptr, ptr %84, align 8, !tbaa !23
  %86 = getelementptr inbounds nuw %struct.H5HF_free_section_t, ptr %85, i32 0, i32 0
  %87 = getelementptr inbounds nuw %struct.H5FS_section_info_t, ptr %86, i32 0, i32 3
  store i32 0, ptr %87, align 4, !tbaa !38
  br label %88

88:                                               ; preds = %77
  %89 = load i32, ptr %7, align 4, !tbaa !11
  %90 = add i32 %89, 1
  store i32 %90, ptr %7, align 4, !tbaa !11
  br label %70, !llvm.loop !114

91:                                               ; preds = %70
  %92 = load ptr, ptr %5, align 8, !tbaa !23
  %93 = getelementptr inbounds nuw %struct.H5HF_free_section_t, ptr %92, i32 0, i32 1
  %94 = getelementptr inbounds nuw %struct.anon.1, ptr %93, i32 0, i32 4
  %95 = load ptr, ptr %94, align 8, !tbaa !63
  %96 = icmp ne ptr %95, null
  br i1 %96, label %97, label %140

97:                                               ; preds = %91
  %98 = load ptr, ptr %5, align 8, !tbaa !23
  %99 = getelementptr inbounds nuw %struct.H5HF_free_section_t, ptr %98, i32 0, i32 1
  %100 = getelementptr inbounds nuw %struct.anon.1, ptr %99, i32 0, i32 4
  %101 = load ptr, ptr %100, align 8, !tbaa !63
  %102 = getelementptr inbounds nuw %struct.H5HF_free_section_t, ptr %101, i32 0, i32 0
  %103 = getelementptr inbounds nuw %struct.H5FS_section_info_t, ptr %102, i32 0, i32 3
  %104 = load i32, ptr %103, align 4, !tbaa !38
  %105 = icmp eq i32 %104, 1
  br i1 %105, label %106, label %140

106:                                              ; preds = %97
  %107 = load ptr, ptr %4, align 8, !tbaa !22
  %108 = load ptr, ptr %5, align 8, !tbaa !23
  %109 = getelementptr inbounds nuw %struct.H5HF_free_section_t, ptr %108, i32 0, i32 1
  %110 = getelementptr inbounds nuw %struct.anon.1, ptr %109, i32 0, i32 4
  %111 = load ptr, ptr %110, align 8, !tbaa !63
  %112 = load ptr, ptr %5, align 8, !tbaa !23
  %113 = getelementptr inbounds nuw %struct.H5HF_free_section_t, ptr %112, i32 0, i32 1
  %114 = getelementptr inbounds nuw %struct.anon.1, ptr %113, i32 0, i32 0
  %115 = load ptr, ptr %114, align 8, !tbaa !63
  %116 = getelementptr inbounds nuw %struct.H5HF_indirect_t, ptr %115, i32 0, i32 3
  %117 = load ptr, ptr %116, align 8, !tbaa !110
  %118 = call i32 @H5HF__sect_indirect_revive(ptr noundef %107, ptr noundef %111, ptr noundef %117)
  %119 = icmp slt i32 %118, 0
  br i1 %119, label %120, label %139

120:                                              ; preds = %106
  br label %121

121:                                              ; preds = %120
  br label %122

122:                                              ; preds = %121
  br label %123

123:                                              ; preds = %122
  %124 = load i64, ptr @H5E_HEAP_g, align 8, !tbaa !25
  %125 = load i64, ptr @H5E_CANTREVIVE_g, align 8, !tbaa !25
  %126 = call i32 (ptr, ptr, i32, i64, i64, ptr, ...) @H5E_printf_stack(ptr noundef @.str, ptr noundef @__func__.H5HF__sect_indirect_revive, i32 noundef 2651, i64 noundef %124, i64 noundef %125, ptr noundef @.str.8)
  br label %127

127:                                              ; preds = %123
  br label %128

128:                                              ; preds = %127
  store i8 1, ptr %9, align 1, !tbaa !13
  %129 = load i8, ptr %9, align 1, !tbaa !13, !range !15, !noundef !16
  %130 = trunc i8 %129 to i1
  %131 = zext i1 %130 to i8
  store i8 %131, ptr %9, align 1, !tbaa !13
  br label %132

132:                                              ; preds = %128
  br label %133

133:                                              ; preds = %132
  br label %134

134:                                              ; preds = %133
  store i32 -1, ptr %8, align 4, !tbaa !11
  br label %141

135:                                              ; No predecessors!
  br label %136

136:                                              ; preds = %135
  br label %137

137:                                              ; preds = %136
  br label %138

138:                                              ; preds = %137
  br label %139

139:                                              ; preds = %138, %106
  br label %140

140:                                              ; preds = %139, %97, %91
  br label %141

141:                                              ; preds = %140, %134, %42
  br label %142

142:                                              ; preds = %141, %16
  %143 = load i32, ptr %8, align 4, !tbaa !11
  call void @llvm.lifetime.end.p0(i64 1, ptr %9) #7
  call void @llvm.lifetime.end.p0(i64 4, ptr %8) #7
  call void @llvm.lifetime.end.p0(i64 4, ptr %7) #7
  ret i32 %143
}