; Function Attrs: nounwind uwtable
define internal fastcc range(i32 -1, 1) i32 @H5HF__sect_indirect_revive(ptr noundef readonly captures(none) %0, ptr noundef captures(none) %1, ptr noundef %2) unnamed_addr #0 {
  %4 = load i8, ptr @H5HF_init_g, align 1, !tbaa !3, !range !7, !noundef !8
  %5 = trunc nuw i8 %4 to i1
  %6 = load i8, ptr @H5_libterm_g, align 1, !range !7
  %7 = trunc nuw i8 %6 to i1
  %8 = xor i1 %7, true
  %9 = select i1 %5, i1 true, i1 %8
  br i1 %9, label %10, label %53, !prof !9

10:                                               ; preds = %3
  %11 = tail call i32 @H5HF__iblock_incr(ptr noundef %2) #13
  %12 = icmp slt i32 %11, 0
  br i1 %12, label %13, label %17

13:                                               ; preds = %10
  %14 = load i64, ptr @H5E_HEAP_g, align 8, !tbaa !18
  %15 = load i64, ptr @H5E_CANTDEC_g, align 8, !tbaa !18
  %16 = tail call i32 (ptr, ptr, i32, i64, i64, ptr, ...) @H5E_printf_stack(ptr noundef nonnull @.str, ptr noundef nonnull @__func__.H5HF__sect_indirect_revive, i32 noundef 2633, i64 noundef %14, i64 noundef %15, ptr noundef nonnull @.str.30) #13
  br label %53

17:                                               ; preds = %10
  %18 = getelementptr inbounds nuw i8, ptr %1, i64 24
  store ptr %2, ptr %18, align 8, !tbaa !26
  %19 = getelementptr inbounds nuw i8, ptr %0, i64 264
  %20 = load i32, ptr %19, align 8, !tbaa !57
  %21 = getelementptr inbounds nuw i8, ptr %2, i64 308
  %22 = load i32, ptr %21, align 4, !tbaa !82
  %23 = mul i32 %22, %20
  %24 = getelementptr inbounds nuw i8, ptr %1, i64 72
  store i32 %23, ptr %24, align 8, !tbaa !26
  %25 = getelementptr inbounds nuw i8, ptr %1, i64 20
  store i32 0, ptr %25, align 4, !tbaa !25
  %26 = getelementptr inbounds nuw i8, ptr %1, i64 80
  %27 = load i32, ptr %26, align 8, !tbaa !26
  %.not22 = icmp eq i32 %27, 0
  br i1 %.not22, label %._crit_edge, label %.lr.ph

.lr.ph:                                           ; preds = %17
  %28 = getelementptr inbounds nuw i8, ptr %1, i64 88
  br label %29

29:                                               ; preds = %.lr.ph, %29
  %indvars.iv = phi i64 [ 0, %.lr.ph ], [ %indvars.iv.next, %29 ]
  %30 = load ptr, ptr %28, align 8, !tbaa !26
  %31 = getelementptr inbounds nuw ptr, ptr %30, i64 %indvars.iv
  %32 = load ptr, ptr %31, align 8, !tbaa !16
  %33 = getelementptr inbounds nuw i8, ptr %32, i64 20
  store i32 0, ptr %33, align 4, !tbaa !25
  %indvars.iv.next = add nuw nsw i64 %indvars.iv, 1
  %34 = load i32, ptr %26, align 8, !tbaa !26
  %35 = zext i32 %34 to i64
  %36 = icmp samesign ult i64 %indvars.iv.next, %35
  br i1 %36, label %29, label %._crit_edge, !llvm.loop !94

._crit_edge:                                      ; preds = %29, %17
  %37 = getelementptr inbounds nuw i8, ptr %1, i64 48
  %38 = load ptr, ptr %37, align 8, !tbaa !26
  %.not = icmp eq ptr %38, null
  br i1 %.not, label %53, label %39

39:                                               ; preds = %._crit_edge
  %40 = getelementptr inbounds nuw i8, ptr %38, i64 20
  %41 = load i32, ptr %40, align 4, !tbaa !25
  %42 = icmp eq i32 %41, 1
  br i1 %42, label %43, label %53

43:                                               ; preds = %39
  %44 = load ptr, ptr %18, align 8, !tbaa !26
  %45 = getelementptr inbounds nuw i8, ptr %44, i64 264
  %46 = load ptr, ptr %45, align 8, !tbaa !72
  %47 = tail call fastcc i32 @H5HF__sect_indirect_revive(ptr noundef %0, ptr noundef nonnull %38, ptr noundef %46)
  %48 = icmp slt i32 %47, 0
  br i1 %48, label %49, label %53

49:                                               ; preds = %43
  %50 = load i64, ptr @H5E_HEAP_g, align 8, !tbaa !18
  %51 = load i64, ptr @H5E_CANTREVIVE_g, align 8, !tbaa !18
  %52 = tail call i32 (ptr, ptr, i32, i64, i64, ptr, ...) @H5E_printf_stack(ptr noundef nonnull @.str, ptr noundef nonnull @__func__.H5HF__sect_indirect_revive, i32 noundef 2651, i64 noundef %50, i64 noundef %51, ptr noundef nonnull @.str.8) #13
  br label %53

53:                                               ; preds = %13, %49, %43, %39, %._crit_edge, %3
  %.0 = phi i32 [ -1, %13 ], [ -1, %49 ], [ 0, %43 ], [ 0, %39 ], [ 0, %._crit_edge ], [ 0, %3 ]
  ret i32 %.0
}